; Function Attrs: mustprogress nofree norecurse nosync nounwind willreturn memory(argmem: read) uwtable
define i32 @hwloc_get_type_depth(ptr noundef readonly captures(none) %0, i32 noundef %1) local_unnamed_addr #0 {
  %3 = icmp ugt i32 %1, 19
  br i1 %3, label %9, label %4

4:                                                ; preds = %2
  %5 = getelementptr inbounds nuw i8, ptr %0, i64 40
  %6 = zext nneg i32 %1 to i64
  %7 = getelementptr inbounds nuw [20 x i32], ptr %5, i64 0, i64 %6
  %8 = load i32, ptr %7, align 4, !tbaa !3
  br label %9

9:                                                ; preds = %2, %4
  %.0 = phi i32 [ %8, %4 ], [ -1, %2 ]
  ret i32 %.0
}